target datalayout = "e-m:e-p270:32:32-p271:32:32-p272:64:64-i64:64-i128:128-f80:128-n8:16:32:64-S128"
target triple = "x86_64-pc-linux-gnu"

%struct.ImVec2 = type { float, float }
%struct.ImGuiMultiSelectTempData = type <{ %struct.ImGuiMultiSelectIO, ptr, i32, i32, %struct.ImVec2, %struct.ImVec2, i64, i32, i32, i8, i8, i8, i8, i8, i8, i8, i8 }>
%struct.ImGuiMultiSelectIO = type { %struct.ImVector.41, i64, i64, i8, i8, i32 }
%struct.ImVector.41 = type { i32, i32, ptr }
%struct.ImGuiSelectionRequest = type { i32, i8, i8, i64, i64 }

; Function Attrs: inlinehint mustprogress uwtable
define linkonce_odr void @_ZN8ImVectorI21ImGuiSelectionRequestE7reserveEi(ptr noundef nonnull align 8 dereferenceable(16) %0, i32 noundef %1) #11 comdat align 2 {
  %3 = alloca ptr, align 8
  %4 = alloca i32, align 4
  %5 = alloca ptr, align 8
  store ptr %0, ptr %3, align 8, !tbaa !713
  store i32 %1, ptr %4, align 4, !tbaa !8
  %6 = load ptr, ptr %3, align 8
  %7 = load i32, ptr %4, align 4, !tbaa !8
  %8 = getelementptr inbounds nuw %struct.ImVector.41, ptr %6, i32 0, i32 1
  %9 = load i32, ptr %8, align 4, !tbaa !715
  %10 = icmp sle i32 %7, %9
  br i1 %10, label %11, label %12

11:                                               ; preds = %2
  br label %35

12:                                               ; preds = %2
  call void @llvm.lifetime.start.p0(i64 8, ptr %5) #17
  %13 = load i32, ptr %4, align 4, !tbaa !8
  %14 = sext i32 %13 to i64
  %15 = mul i64 %14, 24
  %16 = call noundef ptr @_ZN5ImGui8MemAllocEm(i64 noundef %15)
  store ptr %16, ptr %5, align 8, !tbaa !728
  %17 = getelementptr inbounds nuw %struct.ImVector.41, ptr %6, i32 0, i32 2
  %18 = load ptr, ptr %17, align 8, !tbaa !735
  %19 = icmp ne ptr %18, null
  br i1 %19, label %20, label %30

20:                                               ; preds = %12
  %21 = load ptr, ptr %5, align 8, !tbaa !728
  %22 = getelementptr inbounds nuw %struct.ImVector.41, ptr %6, i32 0, i32 2
  %23 = load ptr, ptr %22, align 8, !tbaa !735
  %24 = getelementptr inbounds nuw %struct.ImVector.41, ptr %6, i32 0, i32 0
  %25 = load i32, ptr %24, align 8, !tbaa !716
  %26 = sext i32 %25 to i64
  %27 = mul i64 %26, 24
  call void @llvm.memcpy.p0.p0.i64(ptr align 8 %21, ptr align 8 %23, i64 %27, i1 false)
  %28 = getelementptr inbounds nuw %struct.ImVector.41, ptr %6, i32 0, i32 2
  %29 = load ptr, ptr %28, align 8, !tbaa !735
  call void @_ZN5ImGui7MemFreeEPv(ptr noundef %29)
  br label %30

30:                                               ; preds = %20, %12
  %31 = load ptr, ptr %5, align 8, !tbaa !728
  %32 = getelementptr inbounds nuw %struct.ImVector.41, ptr %6, i32 0, i32 2
  store ptr %31, ptr %32, align 8, !tbaa !735
  %33 = load i32, ptr %4, align 4, !tbaa !8
  %34 = getelementptr inbounds nuw %struct.ImVector.41, ptr %6, i32 0, i32 1
  store i32 %33, ptr %34, align 4, !tbaa !715
  call void @llvm.lifetime.end.p0(i64 8, ptr %5) #17
  br label %35

35:                                               ; preds = %30, %11
  ret void
}

; Function Attrs: inlinehint mustprogress nounwind uwtable
define linkonce_odr noundef i32 @_ZNK8ImVectorI21ImGuiSelectionRequestE14_grow_capacityEi(ptr noundef nonnull align 8 dereferenceable(16) %0, i32 noundef %1) #2 comdat align 2 {
  %3 = alloca ptr, align 8
  %4 = alloca i32, align 4
  %5 = alloca i32, align 4
  store ptr %0, ptr %3, align 8, !tbaa !713
  store i32 %1, ptr %4, align 4, !tbaa !8
  %6 = load ptr, ptr %3, align 8
  call void @llvm.lifetime.start.p0(i64 4, ptr %5) #17
  %7 = getelementptr inbounds nuw %struct.ImVector.41, ptr %6, i32 0, i32 1
  %8 = load i32, ptr %7, align 4, !tbaa !715
  %9 = icmp ne i32 %8, 0
  br i1 %9, label %10, label %17

10:                                               ; preds = %2
  %11 = getelementptr inbounds nuw %struct.ImVector.41, ptr %6, i32 0, i32 1
  %12 = load i32, ptr %11, align 4, !tbaa !715
  %13 = getelementptr inbounds nuw %struct.ImVector.41, ptr %6, i32 0, i32 1
  %14 = load i32, ptr %13, align 4, !tbaa !715
  %15 = sdiv i32 %14, 2
  %16 = add nsw i32 %12, %15
  br label %18

17:                                               ; preds = %2
  br label %18

18:                                               ; preds = %17, %10
  %19 = phi i32 [ %16, %10 ], [ 8, %17 ]
  store i32 %19, ptr %5, align 4, !tbaa !8
  %20 = load i32, ptr %5, align 4, !tbaa !8
  %21 = load i32, ptr %4, align 4, !tbaa !8
  %22 = icmp sgt i32 %20, %21
  br i1 %22, label %23, label %25

23:                                               ; preds = %18
  %24 = load i32, ptr %5, align 4, !tbaa !8
  br label %27

25:                                               ; preds = %18
  %26 = load i32, ptr %4, align 4, !tbaa !8
  br label %27

27:                                               ; preds = %25, %23
  %28 = phi i32 [ %24, %23 ], [ %26, %25 ]
  call void @llvm.lifetime.end.p0(i64 4, ptr %5) #17
  ret i32 %28
}

; Function Attrs: inlinehint mustprogress uwtable
define linkonce_odr void @_ZN8ImVectorI21ImGuiSelectionRequestE9push_backERKS0_(ptr noundef nonnull align 8 dereferenceable(16) %0, ptr noundef nonnull align 8 dereferenceable(24) %1) #11 comdat align 2 {
  %3 = alloca ptr, align 8
  %4 = alloca ptr, align 8
  store ptr %0, ptr %3, align 8, !tbaa !713
  store ptr %1, ptr %4, align 8, !tbaa !728
  %5 = load ptr, ptr %3, align 8
  %6 = getelementptr inbounds nuw %struct.ImVector.41, ptr %5, i32 0, i32 0
  %7 = load i32, ptr %6, align 8, !tbaa !716
  %8 = getelementptr inbounds nuw %struct.ImVector.41, ptr %5, i32 0, i32 1
  %9 = load i32, ptr %8, align 4, !tbaa !715
  %10 = icmp eq i32 %7, %9
  br i1 %10, label %11, label %16

11:                                               ; preds = %2
  %12 = getelementptr inbounds nuw %struct.ImVector.41, ptr %5, i32 0, i32 0
  %13 = load i32, ptr %12, align 8, !tbaa !716
  %14 = add nsw i32 %13, 1
  %15 = call noundef i32 @_ZNK8ImVectorI21ImGuiSelectionRequestE14_grow_capacityEi(ptr noundef nonnull align 8 dereferenceable(16) %5, i32 noundef %14)
  call void @_ZN8ImVectorI21ImGuiSelectionRequestE7reserveEi(ptr noundef nonnull align 8 dereferenceable(16) %5, i32 noundef %15)
  br label %16

16:                                               ; preds = %11, %2
  %17 = getelementptr inbounds nuw %struct.ImVector.41, ptr %5, i32 0, i32 2
  %18 = load ptr, ptr %17, align 8, !tbaa !735
  %19 = getelementptr inbounds nuw %struct.ImVector.41, ptr %5, i32 0, i32 0
  %20 = load i32, ptr %19, align 8, !tbaa !716
  %21 = sext i32 %20 to i64
  %22 = getelementptr inbounds %struct.ImGuiSelectionRequest, ptr %18, i64 %21
  %23 = load ptr, ptr %4, align 8, !tbaa !728
  call void @llvm.memcpy.p0.p0.i64(ptr align 8 %22, ptr align 8 %23, i64 24, i1 false)
  %24 = getelementptr inbounds nuw %struct.ImVector.41, ptr %5, i32 0, i32 0
  %25 = load i32, ptr %24, align 8, !tbaa !716
  %26 = add nsw i32 %25, 1
  store i32 %26, ptr %24, align 8, !tbaa !716
  ret void
}

; Function Attrs: mustprogress uwtable
define void @_ZN5ImGui22MultiSelectAddSetRangeEP24ImGuiMultiSelectTempDatabixx(ptr noundef %0, i1 noundef zeroext %1, i32 noundef %2, i64 noundef %3, i64 noundef %4) #9 {
  %6 = alloca ptr, align 8
  %7 = alloca i8, align 1
  %8 = alloca i32, align 4
  %9 = alloca i64, align 8
  %10 = alloca i64, align 8
  %11 = alloca ptr, align 8
  %12 = alloca i32, align 4
  %13 = alloca %struct.ImGuiSelectionRequest, align 8
  store ptr %0, ptr %6, align 8, !tbaa !261
  %14 = zext i1 %1 to i8
  store i8 %14, ptr %7, align 1, !tbaa !70
  store i32 %2, ptr %8, align 4, !tbaa !8
  store i64 %3, ptr %9, align 8, !tbaa !249
  store i64 %4, ptr %10, align 8, !tbaa !249
  %15 = load ptr, ptr %6, align 8, !tbaa !261
  %16 = getelementptr inbounds nuw %struct.ImGuiMultiSelectTempData, ptr %15, i32 0, i32 0
  %17 = getelementptr inbounds nuw %struct.ImGuiMultiSelectIO, ptr %16, i32 0, i32 0
  %18 = getelementptr inbounds nuw %struct.ImVector.41, ptr %17, i32 0, i32 0
  %19 = load i32, ptr %18, align 8, !tbaa !733
  %20 = icmp sgt i32 %19, 0
  br i1 %20, label %21, label %75

21:                                               ; preds = %5
  %22 = load i64, ptr %9, align 8, !tbaa !249
  %23 = load i64, ptr %10, align 8, !tbaa !249
  %24 = icmp eq i64 %22, %23
  br i1 %24, label %25, label %75

25:                                               ; preds = %21
  %26 = load ptr, ptr %6, align 8, !tbaa !261
  %27 = getelementptr inbounds nuw %struct.ImGuiMultiSelectTempData, ptr %26, i32 0, i32 3
  %28 = load i32, ptr %27, align 4, !tbaa !279
  %29 = and i32 %28, 4
  %30 = icmp eq i32 %29, 0
  br i1 %30, label %31, label %75

31:                                               ; preds = %25
  call void @llvm.lifetime.start.p0(i64 8, ptr %11) #17
  %32 = load ptr, ptr %6, align 8, !tbaa !261
  %33 = getelementptr inbounds nuw %struct.ImGuiMultiSelectTempData, ptr %32, i32 0, i32 0
  %34 = getelementptr inbounds nuw %struct.ImGuiMultiSelectIO, ptr %33, i32 0, i32 0
  %35 = getelementptr inbounds nuw %struct.ImVector.41, ptr %34, i32 0, i32 2
  %36 = load ptr, ptr %35, align 8, !tbaa !734
  %37 = load ptr, ptr %6, align 8, !tbaa !261
  %38 = getelementptr inbounds nuw %struct.ImGuiMultiSelectTempData, ptr %37, i32 0, i32 0
  %39 = getelementptr inbounds nuw %struct.ImGuiMultiSelectIO, ptr %38, i32 0, i32 0
  %40 = getelementptr inbounds nuw %struct.ImVector.41, ptr %39, i32 0, i32 0
  %41 = load i32, ptr %40, align 8, !tbaa !733
  %42 = sub nsw i32 %41, 1
  %43 = sext i32 %42 to i64
  %44 = getelementptr inbounds %struct.ImGuiSelectionRequest, ptr %36, i64 %43
  store ptr %44, ptr %11, align 8, !tbaa !728
  %45 = load ptr, ptr %11, align 8, !tbaa !728
  %46 = getelementptr inbounds nuw %struct.ImGuiSelectionRequest, ptr %45, i32 0, i32 0
  %47 = load i32, ptr %46, align 8, !tbaa !719
  %48 = icmp eq i32 %47, 2
  br i1 %48, label %49, label %71

49:                                               ; preds = %31
  %50 = load ptr, ptr %11, align 8, !tbaa !728
  %51 = getelementptr inbounds nuw %struct.ImGuiSelectionRequest, ptr %50, i32 0, i32 4
  %52 = load i64, ptr %51, align 8, !tbaa !725
  %53 = load ptr, ptr %6, align 8, !tbaa !261
  %54 = getelementptr inbounds nuw %struct.ImGuiMultiSelectTempData, ptr %53, i32 0, i32 6
  %55 = load i64, ptr %54, align 8, !tbaa !293
  %56 = icmp eq i64 %52, %55
  br i1 %56, label %57, label %71

57:                                               ; preds = %49
  %58 = load ptr, ptr %11, align 8, !tbaa !728
  %59 = getelementptr inbounds nuw %struct.ImGuiSelectionRequest, ptr %58, i32 0, i32 1
  %60 = load i8, ptr %59, align 4, !tbaa !722, !range !62, !noundef !63
  %61 = trunc i8 %60 to i1
  %62 = zext i1 %61 to i32
  %63 = load i8, ptr %7, align 1, !tbaa !70, !range !62, !noundef !63
  %64 = trunc i8 %63 to i1
  %65 = zext i1 %64 to i32
  %66 = icmp eq i32 %62, %65
  br i1 %66, label %67, label %71

67:                                               ; preds = %57
  %68 = load i64, ptr %10, align 8, !tbaa !249
  %69 = load ptr, ptr %11, align 8, !tbaa !728
  %70 = getelementptr inbounds nuw %struct.ImGuiSelectionRequest, ptr %69, i32 0, i32 4
  store i64 %68, ptr %70, align 8, !tbaa !725
  store i32 1, ptr %12, align 4
  br label %72

71:                                               ; preds = %57, %49, %31
  store i32 0, ptr %12, align 4
  br label %72

72:                                               ; preds = %71, %67
  call void @llvm.lifetime.end.p0(i64 8, ptr %11) #17
  %73 = load i32, ptr %12, align 4
  switch i32 %73, label %106 [
    i32 0, label %74
    i32 1, label %105
  ]

74:                                               ; preds = %72
  br label %75

75:                                               ; preds = %74, %25, %21, %5
  call void @llvm.lifetime.start.p0(i64 24, ptr %13) #17
  %76 = getelementptr inbounds nuw %struct.ImGuiSelectionRequest, ptr %13, i32 0, i32 0
  store i32 2, ptr %76, align 8, !tbaa !719
  %77 = getelementptr inbounds nuw %struct.ImGuiSelectionRequest, ptr %13, i32 0, i32 1
  %78 = load i8, ptr %7, align 1, !tbaa !70, !range !62, !noundef !63
  %79 = trunc i8 %78 to i1
  %80 = zext i1 %79 to i8
  store i8 %80, ptr %77, align 4, !tbaa !722
  %81 = getelementptr inbounds nuw %struct.ImGuiSelectionRequest, ptr %13, i32 0, i32 2
  %82 = load i32, ptr %8, align 4, !tbaa !8
  %83 = trunc i32 %82 to i8
  store i8 %83, ptr %81, align 1, !tbaa !723
  %84 = getelementptr inbounds nuw %struct.ImGuiSelectionRequest, ptr %13, i32 0, i32 3
  %85 = load i32, ptr %8, align 4, !tbaa !8
  %86 = icmp sgt i32 %85, 0
  br i1 %86, label %87, label %89

87:                                               ; preds = %75
  %88 = load i64, ptr %9, align 8, !tbaa !249
  br label %91

89:                                               ; preds = %75
  %90 = load i64, ptr %10, align 8, !tbaa !249
  br label %91

91:                                               ; preds = %89, %87
  %92 = phi i64 [ %88, %87 ], [ %90, %89 ]
  store i64 %92, ptr %84, align 8, !tbaa !724
  %93 = getelementptr inbounds nuw %struct.ImGuiSelectionRequest, ptr %13, i32 0, i32 4
  %94 = load i32, ptr %8, align 4, !tbaa !8
  %95 = icmp sgt i32 %94, 0
  br i1 %95, label %96, label %98

96:                                               ; preds = %91
  %97 = load i64, ptr %10, align 8, !tbaa !249
  br label %100

98:                                               ; preds = %91
  %99 = load i64, ptr %9, align 8, !tbaa !249
  br label %100

100:                                              ; preds = %98, %96
  %101 = phi i64 [ %97, %96 ], [ %99, %98 ]
  store i64 %101, ptr %93, align 8, !tbaa !725
  %102 = load ptr, ptr %6, align 8, !tbaa !261
  %103 = getelementptr inbounds nuw %struct.ImGuiMultiSelectTempData, ptr %102, i32 0, i32 0
  %104 = getelementptr inbounds nuw %struct.ImGuiMultiSelectIO, ptr %103, i32 0, i32 0
  call void @_ZN8ImVectorI21ImGuiSelectionRequestE9push_backERKS0_(ptr noundef nonnull align 8 dereferenceable(16) %104, ptr noundef nonnull align 8 dereferenceable(24) %13)
  call void @llvm.lifetime.end.p0(i64 24, ptr %13) #17
  br label %105

105:                                              ; preds = %100, %72
  ret void

106:                                              ; preds = %72
  unreachable
}