; Function Attrs: mustprogress uwtable
define void @_ZN5ImGui22MultiSelectAddSetRangeEP24ImGuiMultiSelectTempDatabixx(ptr noundef captures(none) %0, i1 noundef zeroext %1, i32 noundef %2, i64 noundef %3, i64 noundef %4) local_unnamed_addr #6 {
  %6 = zext i1 %1 to i8
  %7 = load i32, ptr %0, align 8, !tbaa !651
  %8 = icmp sgt i32 %7, 0
  %9 = icmp eq i64 %3, %4
  %or.cond = and i1 %9, %8
  br i1 %or.cond, label %10, label %.thread

10:                                               ; preds = %5
  %11 = getelementptr inbounds nuw i8, ptr %0, i64 52
  %12 = load i32, ptr %11, align 4, !tbaa !254
  %13 = and i32 %12, 4
  %14 = icmp eq i32 %13, 0
  br i1 %14, label %15, label %.thread

15:                                               ; preds = %10
  %16 = getelementptr inbounds nuw i8, ptr %0, i64 8
  %17 = load ptr, ptr %16, align 8, !tbaa !652
  %18 = zext nneg i32 %7 to i64
  %19 = getelementptr %struct.ImGuiSelectionRequest, ptr %17, i64 %18
  %20 = getelementptr i8, ptr %19, i64 -24
  %21 = load i32, ptr %20, align 8, !tbaa !636
  %22 = icmp eq i32 %21, 2
  br i1 %22, label %23, label %.thread

23:                                               ; preds = %15
  %24 = getelementptr i8, ptr %19, i64 -8
  %25 = load i64, ptr %24, align 8, !tbaa !641
  %26 = getelementptr inbounds nuw i8, ptr %0, i64 72
  %27 = load i64, ptr %26, align 8, !tbaa !269
  %28 = icmp eq i64 %25, %27
  br i1 %28, label %29, label %.thread

29:                                               ; preds = %23
  %30 = getelementptr i8, ptr %19, i64 -20
  %31 = load i8, ptr %30, align 4, !tbaa !639, !range !153, !noundef !154
  %32 = icmp eq i8 %31, %6
  br i1 %32, label %33, label %.thread

33:                                               ; preds = %29
  store i64 %3, ptr %24, align 8, !tbaa !641
  br label %65

.thread:                                          ; preds = %15, %23, %29, %10, %5
  %34 = trunc i32 %2 to i8
  %35 = icmp sgt i32 %2, 0
  %36 = select i1 %35, i64 %3, i64 %4
  %37 = select i1 %35, i64 %4, i64 %3
  %38 = getelementptr inbounds nuw i8, ptr %0, i64 4
  %39 = load i32, ptr %38, align 4, !tbaa !257
  %40 = icmp eq i32 %7, %39
  br i1 %40, label %41, label %._ZN8ImVectorI21ImGuiSelectionRequestE7reserveEi.exit_crit_edge.i

._ZN8ImVectorI21ImGuiSelectionRequestE7reserveEi.exit_crit_edge.i: ; preds = %.thread
  %.phi.trans.insert.i = getelementptr inbounds nuw i8, ptr %0, i64 8
  %.pre.i = load ptr, ptr %.phi.trans.insert.i, align 8, !tbaa !258
  br label %_ZN8ImVectorI21ImGuiSelectionRequestE9push_backERKS0_.exit

41:                                               ; preds = %.thread
  %42 = add nsw i32 %7, 1
  %.not.i.i = icmp eq i32 %7, 0
  br i1 %.not.i.i, label %_ZNK8ImVectorI21ImGuiSelectionRequestE14_grow_capacityEi.exit.i, label %43

43:                                               ; preds = %41
  %44 = sdiv i32 %7, 2
  %45 = add nsw i32 %44, %7
  br label %_ZNK8ImVectorI21ImGuiSelectionRequestE14_grow_capacityEi.exit.i

_ZNK8ImVectorI21ImGuiSelectionRequestE14_grow_capacityEi.exit.i: ; preds = %43, %41
  %46 = phi i32 [ %45, %43 ], [ 8, %41 ]
  %47 = tail call noundef i32 @llvm.smax.i32(i32 %46, i32 %42)
  %48 = sext i32 %47 to i64
  %49 = mul nsw i64 %48, 24
  %50 = tail call noundef ptr @_ZN5ImGui8MemAllocEm(i64 noundef %49)
  %51 = getelementptr inbounds nuw i8, ptr %0, i64 8
  %52 = load ptr, ptr %51, align 8, !tbaa !258
  %.not6.i.i = icmp eq ptr %52, null
  br i1 %.not6.i.i, label %58, label %53

53:                                               ; preds = %_ZNK8ImVectorI21ImGuiSelectionRequestE14_grow_capacityEi.exit.i
  %54 = load i32, ptr %0, align 8, !tbaa !259
  %55 = sext i32 %54 to i64
  %56 = mul nsw i64 %55, 24
  tail call void @llvm.memcpy.p0.p0.i64(ptr align 8 %50, ptr nonnull align 8 %52, i64 %56, i1 false)
  %57 = load ptr, ptr %51, align 8, !tbaa !258
  tail call void @_ZN5ImGui7MemFreeEPv(ptr noundef %57)
  br label %58

58:                                               ; preds = %53, %_ZNK8ImVectorI21ImGuiSelectionRequestE14_grow_capacityEi.exit.i
  store ptr %50, ptr %51, align 8, !tbaa !258
  store i32 %47, ptr %38, align 4, !tbaa !257
  %.pre3.i = load i32, ptr %0, align 8, !tbaa !259
  br label %_ZN8ImVectorI21ImGuiSelectionRequestE9push_backERKS0_.exit

_ZN8ImVectorI21ImGuiSelectionRequestE9push_backERKS0_.exit: ; preds = %._ZN8ImVectorI21ImGuiSelectionRequestE7reserveEi.exit_crit_edge.i, %58
  %59 = phi i32 [ %7, %._ZN8ImVectorI21ImGuiSelectionRequestE7reserveEi.exit_crit_edge.i ], [ %.pre3.i, %58 ]
  %60 = phi ptr [ %.pre.i, %._ZN8ImVectorI21ImGuiSelectionRequestE7reserveEi.exit_crit_edge.i ], [ %50, %58 ]
  %61 = sext i32 %59 to i64
  %62 = getelementptr inbounds %struct.ImGuiSelectionRequest, ptr %60, i64 %61
  store i32 2, ptr %62, align 8
  %.sroa.4.0..sroa_idx = getelementptr inbounds nuw i8, ptr %62, i64 4
  store i8 %6, ptr %.sroa.4.0..sroa_idx, align 4
  %.sroa.5.0..sroa_idx = getelementptr inbounds nuw i8, ptr %62, i64 5
  store i8 %34, ptr %.sroa.5.0..sroa_idx, align 1
  %.sroa.624.0..sroa_idx = getelementptr inbounds nuw i8, ptr %62, i64 8
  store i64 %36, ptr %.sroa.624.0..sroa_idx, align 8
  %.sroa.7.0..sroa_idx = getelementptr inbounds nuw i8, ptr %62, i64 16
  store i64 %37, ptr %.sroa.7.0..sroa_idx, align 8
  %63 = load i32, ptr %0, align 8, !tbaa !259
  %64 = add nsw i32 %63, 1
  store i32 %64, ptr %0, align 8, !tbaa !259
  br label %65

65:                                               ; preds = %33, %_ZN8ImVectorI21ImGuiSelectionRequestE9push_backERKS0_.exit
  ret void
}